; ModuleID = '31/304.c'
source_filename = "31/304.c"
target datalayout = "e-m:e-p270:32:32-p271:32:32-p272:64:64-i64:64-f80:128-n8:16:32:64-S128"
target triple = "x86_64-pc-linux-gnu"

%struct.stu = type { [100 x i8], %struct.stu* }

@.str = private unnamed_addr constant [4 x i8] c"end\00", align 1

; Function Attrs: noinline nounwind uwtable
define dso_local i32 @main() #0 {
  %1 = alloca i32, align 4
  %2 = alloca %struct.stu*, align 8
  %3 = alloca %struct.stu*, align 8
  %4 = alloca %struct.stu*, align 8
  store i32 0, i32* %1, align 4
  %5 = call noalias i8* @malloc(i64 112) #4
  %6 = bitcast i8* %5 to %struct.stu*
  store %struct.stu* %6, %struct.stu** %2, align 8
  %7 = load %struct.stu*, %struct.stu** %2, align 8
  store %struct.stu* %7, %struct.stu** %3, align 8
  %8 = load %struct.stu*, %struct.stu** %2, align 8
  store %struct.stu* %8, %struct.stu** %4, align 8
  %9 = load %struct.stu*, %struct.stu** %3, align 8
  %10 = getelementptr inbounds %struct.stu, %struct.stu* %9, i32 0, i32 1
  store %struct.stu* null, %struct.stu** %10, align 8
  br label %11

11:                                               ; preds = %0, %24
  %12 = load %struct.stu*, %struct.stu** %3, align 8
  %13 = getelementptr inbounds %struct.stu, %struct.stu* %12, i32 0, i32 0
  %14 = getelementptr inbounds [100 x i8], [100 x i8]* %13, i64 0, i64 0
  %15 = call i32 (i8*, ...) bitcast (i32 (...)* @gets to i32 (i8*, ...)*)(i8* %14)
  %16 = load %struct.stu*, %struct.stu** %3, align 8
  %17 = getelementptr inbounds %struct.stu, %struct.stu* %16, i32 0, i32 0
  %18 = getelementptr inbounds [100 x i8], [100 x i8]* %17, i64 0, i64 0
  %19 = call i32 @strcmp(i8* %18, i8* getelementptr inbounds ([4 x i8], [4 x i8]* @.str, i64 0, i64 0)) #5
  %20 = icmp eq i32 %19, 0
  br i1 %20, label %21, label %22

21:                                               ; preds = %11
  br label %31

22:                                               ; preds = %11
  %23 = load %struct.stu*, %struct.stu** %3, align 8
  store %struct.stu* %23, %struct.stu** %2, align 8
  br label %24

24:                                               ; preds = %22
  %25 = call noalias i8* @malloc(i64 112) #4
  %26 = bitcast i8* %25 to %struct.stu*
  store %struct.stu* %26, %struct.stu** %3, align 8
  %27 = load %struct.stu*, %struct.stu** %4, align 8
  %28 = load %struct.stu*, %struct.stu** %3, align 8
  %29 = getelementptr inbounds %struct.stu, %struct.stu* %28, i32 0, i32 1
  store %struct.stu* %27, %struct.stu** %29, align 8
  %30 = load %struct.stu*, %struct.stu** %3, align 8
  store %struct.stu* %30, %struct.stu** %4, align 8
  br label %11

31:                                               ; preds = %21
  %32 = load %struct.stu*, %struct.stu** %2, align 8
  store %struct.stu* %32, %struct.stu** %3, align 8
  br label %33

33:                                               ; preds = %31, %43
  %34 = load %struct.stu*, %struct.stu** %3, align 8
  %35 = getelementptr inbounds %struct.stu, %struct.stu* %34, i32 0, i32 0
  %36 = getelementptr inbounds [100 x i8], [100 x i8]* %35, i64 0, i64 0
  %37 = call i32 @puts(i8* %36)
  %38 = load %struct.stu*, %struct.stu** %3, align 8
  %39 = getelementptr inbounds %struct.stu, %struct.stu* %38, i32 0, i32 1
  %40 = load %struct.stu*, %struct.stu** %39, align 8
  %41 = icmp eq %struct.stu* %40, null
  br i1 %41, label %42, label %43

42:                                               ; preds = %33
  br label %47

43:                                               ; preds = %33
  %44 = load %struct.stu*, %struct.stu** %3, align 8
  %45 = getelementptr inbounds %struct.stu, %struct.stu* %44, i32 0, i32 1
  %46 = load %struct.stu*, %struct.stu** %45, align 8
  store %struct.stu* %46, %struct.stu** %3, align 8
  br label %33

47:                                               ; preds = %42
  ret i32 0
}

; Function Attrs: nounwind
declare dso_local noalias i8* @malloc(i64) #1

declare dso_local i32 @gets(...) #2

; Function Attrs: nounwind readonly
declare dso_local i32 @strcmp(i8*, i8*) #3

declare dso_local i32 @puts(i8*) #2


!llvm.module.flags = !{!0}
!llvm.ident = !{!1}

!0 = !{i32 1, !"wchar_size", i32 4}
!1 = !{!"clang version 10.0.0-4ubuntu1 "}
